target datalayout = "e-m:e-p270:32:32-p271:32:32-p272:64:64-i64:64-i128:128-f80:128-n8:16:32:64-S128"
target triple = "x86_64-pc-linux-gnu"

%struct.expert_field = type { i32, i32 }

@ei_ppp_opt_len_invalid = internal global %struct.expert_field zeroinitializer, align 4
@hf_ccp_opt_type = internal global i32 0, align 4
@hf_ccp_opt_length = internal global i32 0, align 4
@.str.1006 = private unnamed_addr constant [1 x i8] zeroinitializer, align 1
@.str.1007 = private unnamed_addr constant [2 x i8] c"s\00", align 1
@.str.1295 = private unnamed_addr constant [8 x i8] c"%s (%u)\00", align 1
@.str.1316 = private unnamed_addr constant [59 x i8] c"%s (with option length = %u byte%s; should be at least %u)\00", align 1

; Function Attrs: null_pointer_is_valid sspstrong uwtable
define internal void @dissect_ccp_opt_type_len(ptr noundef %0, i32 noundef %1, ptr noundef %2, ptr noundef %3) #1 {
  %5 = alloca ptr, align 8
  %6 = alloca i32, align 4
  %7 = alloca ptr, align 8
  %8 = alloca ptr, align 8
  %9 = alloca i8, align 1
  store ptr %0, ptr %5, align 8
  store i32 %1, ptr %6, align 4
  store ptr %2, ptr %7, align 8
  store ptr %3, ptr %8, align 8
  call void @llvm.lifetime.start.p0(i64 1, ptr %9) #6
  %10 = load ptr, ptr %5, align 8
  %11 = load i32, ptr %6, align 4
  %12 = call zeroext i8 @tvb_get_uint8(ptr noundef %10, i32 noundef %11)
  store i8 %12, ptr %9, align 1
  %13 = load ptr, ptr %7, align 8
  %14 = load i32, ptr @hf_ccp_opt_type, align 4
  %15 = load ptr, ptr %5, align 8
  %16 = load i32, ptr %6, align 4
  %17 = load i8, ptr %9, align 1
  %18 = zext i8 %17 to i32
  %19 = load ptr, ptr %8, align 8
  %20 = load i8, ptr %9, align 1
  %21 = zext i8 %20 to i32
  %22 = call ptr (ptr, i32, ptr, i32, i32, i32, ptr, ...) @proto_tree_add_uint_format_value(ptr noundef %13, i32 noundef %14, ptr noundef %15, i32 noundef %16, i32 noundef 1, i32 noundef %18, ptr noundef @.str.1295, ptr noundef %19, i32 noundef %21)
  %23 = load ptr, ptr %7, align 8
  %24 = load i32, ptr @hf_ccp_opt_length, align 4
  %25 = load ptr, ptr %5, align 8
  %26 = load i32, ptr %6, align 4
  %27 = add i32 %26, 1
  %28 = call ptr @proto_tree_add_item(ptr noundef %23, i32 noundef %24, ptr noundef %25, i32 noundef %27, i32 noundef 1, i32 noundef 0)
  call void @llvm.lifetime.end.p0(i64 1, ptr %9) #6
  ret void
}

; Function Attrs: null_pointer_is_valid sspstrong uwtable
define internal zeroext i1 @dissect_ccp_var_opt(ptr noundef %0, ptr noundef %1, ptr noundef %2, i32 noundef %3, i32 noundef %4, i32 noundef %5, ptr noundef %6, ptr noundef %7) #1 {
  %9 = alloca i1, align 1
  %10 = alloca ptr, align 8
  %11 = alloca ptr, align 8
  %12 = alloca ptr, align 8
  %13 = alloca i32, align 4
  %14 = alloca i32, align 4
  %15 = alloca i32, align 4
  %16 = alloca ptr, align 8
  %17 = alloca ptr, align 8
  %18 = alloca i32, align 4
  %19 = alloca i32, align 4
  store ptr %0, ptr %10, align 8
  store ptr %1, ptr %11, align 8
  store ptr %2, ptr %12, align 8
  store i32 %3, ptr %13, align 4
  store i32 %4, ptr %14, align 4
  store i32 %5, ptr %15, align 4
  store ptr %6, ptr %16, align 8
  store ptr %7, ptr %17, align 8
  call void @llvm.lifetime.start.p0(i64 4, ptr %18) #6
  %20 = load ptr, ptr %10, align 8
  %21 = call i32 @tvb_reported_length(ptr noundef %20)
  store i32 %21, ptr %18, align 4
  %22 = load i32, ptr %18, align 4
  %23 = load i32, ptr %15, align 4
  %24 = icmp slt i32 %22, %23
  br i1 %24, label %25, label %39

25:                                               ; preds = %8
  %26 = load ptr, ptr %12, align 8
  %27 = load ptr, ptr %11, align 8
  %28 = load ptr, ptr %10, align 8
  %29 = load i32, ptr %18, align 4
  %30 = load i32, ptr %13, align 4
  %31 = call ptr @find_protocol_by_id(i32 noundef %30)
  %32 = call ptr @proto_get_protocol_short_name(ptr noundef %31)
  %33 = load i32, ptr %18, align 4
  %34 = load i32, ptr %18, align 4
  %35 = icmp eq i32 %34, 1
  %36 = select i1 %35, ptr @.str.1006, ptr @.str.1007
  %37 = load i32, ptr %15, align 4
  %38 = call ptr (ptr, ptr, ptr, ptr, i32, i32, ptr, ...) @proto_tree_add_expert_format(ptr noundef %26, ptr noundef %27, ptr noundef @ei_ppp_opt_len_invalid, ptr noundef %28, i32 noundef 0, i32 noundef %29, ptr noundef @.str.1316, ptr noundef %32, i32 noundef %33, ptr noundef %36, i32 noundef %37)
  store i1 false, ptr %9, align 1
  store i32 1, ptr %19, align 4
  br label %55

39:                                               ; preds = %8
  %40 = load ptr, ptr %12, align 8
  %41 = load i32, ptr %13, align 4
  %42 = load ptr, ptr %10, align 8
  %43 = call ptr @proto_tree_add_item(ptr noundef %40, i32 noundef %41, ptr noundef %42, i32 noundef 0, i32 noundef -1, i32 noundef 0)
  %44 = load ptr, ptr %17, align 8
  store ptr %43, ptr %44, align 8
  %45 = load ptr, ptr %17, align 8
  %46 = load ptr, ptr %45, align 8
  %47 = load i32, ptr %14, align 4
  %48 = call ptr @proto_item_add_subtree(ptr noundef %46, i32 noundef %47)
  %49 = load ptr, ptr %16, align 8
  store ptr %48, ptr %49, align 8
  %50 = load ptr, ptr %10, align 8
  %51 = load ptr, ptr %16, align 8
  %52 = load ptr, ptr %51, align 8
  %53 = load i32, ptr %13, align 4
  %54 = call ptr @proto_registrar_get_name(i32 noundef %53)
  call void @dissect_ccp_opt_type_len(ptr noundef %50, i32 noundef 0, ptr noundef %52, ptr noundef %54)
  store i1 true, ptr %9, align 1
  store i32 1, ptr %19, align 4
  br label %55

55:                                               ; preds = %39, %25
  call void @llvm.lifetime.end.p0(i64 4, ptr %18) #6
  %56 = load i1, ptr %9, align 1
  ret i1 %56
}