; Function Attrs: null_pointer_is_valid sspstrong uwtable
define internal fastcc noundef zeroext i1 @dissect_ccp_var_opt(ptr noundef %0, ptr noundef %1, ptr noundef %2, i32 noundef %3, i32 noundef %4, i32 noundef range(i32 3, 7) %5, ptr noundef writeonly captures(none) %6, ptr noundef writeonly captures(none) %7) unnamed_addr #1 {
  %9 = tail call i32 @tvb_reported_length(ptr noundef %0)
  %10 = icmp sge i32 %9, %5
  br i1 %10, label %17, label %11

11:                                               ; preds = %8
  %12 = tail call ptr @find_protocol_by_id(i32 noundef %3)
  %13 = tail call ptr @proto_get_protocol_short_name(ptr noundef %12)
  %14 = icmp eq i32 %9, 1
  %15 = select i1 %14, ptr @.str.1006, ptr @.str.1007
  %16 = tail call ptr (ptr, ptr, ptr, ptr, i32, i32, ptr, ...) @proto_tree_add_expert_format(ptr noundef %2, ptr noundef %1, ptr noundef nonnull @ei_ppp_opt_len_invalid, ptr noundef %0, i32 noundef 0, i32 noundef %9, ptr noundef nonnull @.str.1316, ptr noundef %13, i32 noundef %9, ptr noundef nonnull %15, i32 noundef %5)
  br label %27

17:                                               ; preds = %8
  %18 = tail call ptr @proto_tree_add_item(ptr noundef %2, i32 noundef %3, ptr noundef %0, i32 noundef 0, i32 noundef -1, i32 noundef 0)
  store ptr %18, ptr %7, align 8
  %19 = tail call ptr @proto_item_add_subtree(ptr noundef %18, i32 noundef %4)
  store ptr %19, ptr %6, align 8
  %20 = tail call ptr @proto_registrar_get_name(i32 noundef %3)
  %21 = tail call zeroext i8 @tvb_get_uint8(ptr noundef %0, i32 noundef 0)
  %22 = load i32, ptr @hf_ccp_opt_type, align 4
  %23 = zext i8 %21 to i32
  %24 = tail call ptr (ptr, i32, ptr, i32, i32, i32, ptr, ...) @proto_tree_add_uint_format_value(ptr noundef %19, i32 noundef %22, ptr noundef %0, i32 noundef 0, i32 noundef 1, i32 noundef %23, ptr noundef nonnull @.str.1295, ptr noundef %20, i32 noundef %23)
  %25 = load i32, ptr @hf_ccp_opt_length, align 4
  %26 = tail call ptr @proto_tree_add_item(ptr noundef %19, i32 noundef %25, ptr noundef %0, i32 noundef 1, i32 noundef 1, i32 noundef 0)
  br label %27

27:                                               ; preds = %17, %11
  ret i1 %10
}